target datalayout = "e-m:e-p270:32:32-p271:32:32-p272:64:64-i64:64-i128:128-f80:128-n8:16:32:64-S128"
target triple = "x86_64-unknown-linux-gnu"

%struct.UEnumeration = type { ptr, ptr, ptr, ptr, ptr, ptr, ptr }
%"struct.icu_75::CSRecognizerInfo" = type <{ ptr, i8, [7 x i8] }>
%struct.Context = type { i32, i8, ptr }

@_ZL19fCSRecognizers_size = internal global i32 0, align 4
@_ZL14fCSRecognizers = internal global ptr null, align 8

; Function Attrs: mustprogress uwtable
define internal noundef ptr @_ZL8enumNextP12UEnumerationPiP10UErrorCode(ptr noundef %en, ptr noundef %resultLength, ptr noundef %0) #0 {
entry:
  %en.addr = alloca ptr, align 8
  %resultLength.addr = alloca ptr, align 8
  %.addr = alloca ptr, align 8
  %currName = alloca ptr, align 8
  %enabledArray = alloca ptr, align 8
  store ptr %en, ptr %en.addr, align 8
  store ptr %resultLength, ptr %resultLength.addr, align 8
  store ptr %0, ptr %.addr, align 8
  store ptr null, ptr %currName, align 8
  %1 = load ptr, ptr %en.addr, align 8
  %context = getelementptr inbounds %struct.UEnumeration, ptr %1, i32 0, i32 1
  %2 = load ptr, ptr %context, align 8
  %currIndex = getelementptr inbounds %struct.Context, ptr %2, i32 0, i32 0
  %3 = load i32, ptr %currIndex, align 8
  %4 = load i32, ptr @_ZL19fCSRecognizers_size, align 4
  %cmp = icmp slt i32 %3, %4
  br i1 %cmp, label %if.then, label %if.end61

if.then:                                          ; preds = %entry
  %5 = load ptr, ptr %en.addr, align 8
  %context1 = getelementptr inbounds %struct.UEnumeration, ptr %5, i32 0, i32 1
  %6 = load ptr, ptr %context1, align 8
  %all = getelementptr inbounds %struct.Context, ptr %6, i32 0, i32 1
  %7 = load i8, ptr %all, align 4
  %tobool = icmp ne i8 %7, 0
  br i1 %tobool, label %if.then2, label %if.else

if.then2:                                         ; preds = %if.then
  %8 = load ptr, ptr @_ZL14fCSRecognizers, align 8
  %9 = load ptr, ptr %en.addr, align 8
  %context3 = getelementptr inbounds %struct.UEnumeration, ptr %9, i32 0, i32 1
  %10 = load ptr, ptr %context3, align 8
  %currIndex4 = getelementptr inbounds %struct.Context, ptr %10, i32 0, i32 0
  %11 = load i32, ptr %currIndex4, align 8
  %idxprom = sext i32 %11 to i64
  %arrayidx = getelementptr inbounds ptr, ptr %8, i64 %idxprom
  %12 = load ptr, ptr %arrayidx, align 8
  %recognizer = getelementptr inbounds %"struct.icu_75::CSRecognizerInfo", ptr %12, i32 0, i32 0
  %13 = load ptr, ptr %recognizer, align 8
  %vtable = load ptr, ptr %13, align 8
  %vfn = getelementptr inbounds ptr, ptr %vtable, i64 0
  %14 = load ptr, ptr %vfn, align 8
  %call = call noundef ptr %14(ptr noundef nonnull align 8 dereferenceable(8) %13)
  store ptr %call, ptr %currName, align 8
  %15 = load ptr, ptr %en.addr, align 8
  %context5 = getelementptr inbounds %struct.UEnumeration, ptr %15, i32 0, i32 1
  %16 = load ptr, ptr %context5, align 8
  %currIndex6 = getelementptr inbounds %struct.Context, ptr %16, i32 0, i32 0
  %17 = load i32, ptr %currIndex6, align 8
  %inc = add nsw i32 %17, 1
  store i32 %inc, ptr %currIndex6, align 8
  br label %if.end60

if.else:                                          ; preds = %if.then
  %18 = load ptr, ptr %en.addr, align 8
  %context7 = getelementptr inbounds %struct.UEnumeration, ptr %18, i32 0, i32 1
  %19 = load ptr, ptr %context7, align 8
  %enabledRecognizers = getelementptr inbounds %struct.Context, ptr %19, i32 0, i32 2
  %20 = load ptr, ptr %enabledRecognizers, align 8
  store ptr %20, ptr %enabledArray, align 8
  %21 = load ptr, ptr %enabledArray, align 8
  %cmp8 = icmp ne ptr %21, null
  br i1 %cmp8, label %if.then9, label %if.else31

if.then9:                                         ; preds = %if.else
  br label %while.cond

while.cond:                                       ; preds = %if.end, %if.then9
  %22 = load ptr, ptr %currName, align 8
  %cmp10 = icmp eq ptr %22, null
  br i1 %cmp10, label %land.rhs, label %land.end

land.rhs:                                         ; preds = %while.cond
  %23 = load ptr, ptr %en.addr, align 8
  %context11 = getelementptr inbounds %struct.UEnumeration, ptr %23, i32 0, i32 1
  %24 = load ptr, ptr %context11, align 8
  %currIndex12 = getelementptr inbounds %struct.Context, ptr %24, i32 0, i32 0
  %25 = load i32, ptr %currIndex12, align 8
  %26 = load i32, ptr @_ZL19fCSRecognizers_size, align 4
  %cmp13 = icmp slt i32 %25, %26
  br label %land.end

land.end:                                         ; preds = %land.rhs, %while.cond
  %27 = phi i1 [ false, %while.cond ], [ %cmp13, %land.rhs ]
  br i1 %27, label %while.body, label %while.end

while.body:                                       ; preds = %land.end
  %28 = load ptr, ptr %enabledArray, align 8
  %29 = load ptr, ptr %en.addr, align 8
  %context14 = getelementptr inbounds %struct.UEnumeration, ptr %29, i32 0, i32 1
  %30 = load ptr, ptr %context14, align 8
  %currIndex15 = getelementptr inbounds %struct.Context, ptr %30, i32 0, i32 0
  %31 = load i32, ptr %currIndex15, align 8
  %idxprom16 = sext i32 %31 to i64
  %arrayidx17 = getelementptr inbounds i8, ptr %28, i64 %idxprom16
  %32 = load i8, ptr %arrayidx17, align 1
  %tobool18 = icmp ne i8 %32, 0
  br i1 %tobool18, label %if.then19, label %if.end

if.then19:                                        ; preds = %while.body
  %33 = load ptr, ptr @_ZL14fCSRecognizers, align 8
  %34 = load ptr, ptr %en.addr, align 8
  %context20 = getelementptr inbounds %struct.UEnumeration, ptr %34, i32 0, i32 1
  %35 = load ptr, ptr %context20, align 8
  %currIndex21 = getelementptr inbounds %struct.Context, ptr %35, i32 0, i32 0
  %36 = load i32, ptr %currIndex21, align 8
  %idxprom22 = sext i32 %36 to i64
  %arrayidx23 = getelementptr inbounds ptr, ptr %33, i64 %idxprom22
  %37 = load ptr, ptr %arrayidx23, align 8
  %recognizer24 = getelementptr inbounds %"struct.icu_75::CSRecognizerInfo", ptr %37, i32 0, i32 0
  %38 = load ptr, ptr %recognizer24, align 8
  %vtable25 = load ptr, ptr %38, align 8
  %vfn26 = getelementptr inbounds ptr, ptr %vtable25, i64 0
  %39 = load ptr, ptr %vfn26, align 8
  %call27 = call noundef ptr %39(ptr noundef nonnull align 8 dereferenceable(8) %38)
  store ptr %call27, ptr %currName, align 8
  br label %if.end

if.end:                                           ; preds = %if.then19, %while.body
  %40 = load ptr, ptr %en.addr, align 8
  %context28 = getelementptr inbounds %struct.UEnumeration, ptr %40, i32 0, i32 1
  %41 = load ptr, ptr %context28, align 8
  %currIndex29 = getelementptr inbounds %struct.Context, ptr %41, i32 0, i32 0
  %42 = load i32, ptr %currIndex29, align 8
  %inc30 = add nsw i32 %42, 1
  store i32 %inc30, ptr %currIndex29, align 8
  br label %while.cond, !llvm.loop !14

while.end:                                        ; preds = %land.end
  br label %if.end59

if.else31:                                        ; preds = %if.else
  br label %while.cond32

while.cond32:                                     ; preds = %if.end54, %if.else31
  %43 = load ptr, ptr %currName, align 8
  %cmp33 = icmp eq ptr %43, null
  br i1 %cmp33, label %land.rhs34, label %land.end38

land.rhs34:                                       ; preds = %while.cond32
  %44 = load ptr, ptr %en.addr, align 8
  %context35 = getelementptr inbounds %struct.UEnumeration, ptr %44, i32 0, i32 1
  %45 = load ptr, ptr %context35, align 8
  %currIndex36 = getelementptr inbounds %struct.Context, ptr %45, i32 0, i32 0
  %46 = load i32, ptr %currIndex36, align 8
  %47 = load i32, ptr @_ZL19fCSRecognizers_size, align 4
  %cmp37 = icmp slt i32 %46, %47
  br label %land.end38

land.end38:                                       ; preds = %land.rhs34, %while.cond32
  %48 = phi i1 [ false, %while.cond32 ], [ %cmp37, %land.rhs34 ]
  br i1 %48, label %while.body39, label %while.end58

while.body39:                                     ; preds = %land.end38
  %49 = load ptr, ptr @_ZL14fCSRecognizers, align 8
  %50 = load ptr, ptr %en.addr, align 8
  %context40 = getelementptr inbounds %struct.UEnumeration, ptr %50, i32 0, i32 1
  %51 = load ptr, ptr %context40, align 8
  %currIndex41 = getelementptr inbounds %struct.Context, ptr %51, i32 0, i32 0
  %52 = load i32, ptr %currIndex41, align 8
  %idxprom42 = sext i32 %52 to i64
  %arrayidx43 = getelementptr inbounds ptr, ptr %49, i64 %idxprom42
  %53 = load ptr, ptr %arrayidx43, align 8
  %isDefaultEnabled = getelementptr inbounds %"struct.icu_75::CSRecognizerInfo", ptr %53, i32 0, i32 1
  %54 = load i8, ptr %isDefaultEnabled, align 8
  %tobool44 = icmp ne i8 %54, 0
  br i1 %tobool44, label %if.then45, label %if.end54

if.then45:                                        ; preds = %while.body39
  %55 = load ptr, ptr @_ZL14fCSRecognizers, align 8
  %56 = load ptr, ptr %en.addr, align 8
  %context46 = getelementptr inbounds %struct.UEnumeration, ptr %56, i32 0, i32 1
  %57 = load ptr, ptr %context46, align 8
  %currIndex47 = getelementptr inbounds %struct.Context, ptr %57, i32 0, i32 0
  %58 = load i32, ptr %currIndex47, align 8
  %idxprom48 = sext i32 %58 to i64
  %arrayidx49 = getelementptr inbounds ptr, ptr %55, i64 %idxprom48
  %59 = load ptr, ptr %arrayidx49, align 8
  %recognizer50 = getelementptr inbounds %"struct.icu_75::CSRecognizerInfo", ptr %59, i32 0, i32 0
  %60 = load ptr, ptr %recognizer50, align 8
  %vtable51 = load ptr, ptr %60, align 8
  %vfn52 = getelementptr inbounds ptr, ptr %vtable51, i64 0
  %61 = load ptr, ptr %vfn52, align 8
  %call53 = call noundef ptr %61(ptr noundef nonnull align 8 dereferenceable(8) %60)
  store ptr %call53, ptr %currName, align 8
  br label %if.end54

if.end54:                                         ; preds = %if.then45, %while.body39
  %62 = load ptr, ptr %en.addr, align 8
  %context55 = getelementptr inbounds %struct.UEnumeration, ptr %62, i32 0, i32 1
  %63 = load ptr, ptr %context55, align 8
  %currIndex56 = getelementptr inbounds %struct.Context, ptr %63, i32 0, i32 0
  %64 = load i32, ptr %currIndex56, align 8
  %inc57 = add nsw i32 %64, 1
  store i32 %inc57, ptr %currIndex56, align 8
  br label %while.cond32, !llvm.loop !15

while.end58:                                      ; preds = %land.end38
  br label %if.end59

if.end59:                                         ; preds = %while.end58, %while.end
  br label %if.end60

if.end60:                                         ; preds = %if.end59, %if.then2
  br label %if.end61

if.end61:                                         ; preds = %if.end60, %entry
  %65 = load ptr, ptr %resultLength.addr, align 8
  %cmp62 = icmp ne ptr %65, null
  br i1 %cmp62, label %if.then63, label %if.end66

if.then63:                                        ; preds = %if.end61
  %66 = load ptr, ptr %currName, align 8
  %cmp64 = icmp eq ptr %66, null
  br i1 %cmp64, label %cond.true, label %cond.false

cond.true:                                        ; preds = %if.then63
  br label %cond.end

cond.false:                                       ; preds = %if.then63
  %67 = load ptr, ptr %currName, align 8
  %call65 = call i64 @strlen(ptr noundef %67) #12
  %conv = trunc i64 %call65 to i32
  br label %cond.end

cond.end:                                         ; preds = %cond.false, %cond.true
  %cond = phi i32 [ 0, %cond.true ], [ %conv, %cond.false ]
  %68 = load ptr, ptr %resultLength.addr, align 8
  store i32 %cond, ptr %68, align 4
  br label %if.end66

if.end66:                                         ; preds = %cond.end, %if.end61
  %69 = load ptr, ptr %currName, align 8
  ret ptr %69
}