; Function Attrs: mustprogress uwtable
define internal noundef ptr @_ZL8enumNextP12UEnumerationPiP10UErrorCode(ptr nocapture noundef readonly %en, ptr noundef writeonly %resultLength, ptr nocapture readnone %0) #0 {
entry:
  %context = getelementptr inbounds i8, ptr %en, i64 8
  %1 = load ptr, ptr %context, align 8
  %2 = load i32, ptr %1, align 8
  %.b22 = load i1, ptr @_ZL19fCSRecognizers_size, align 4
  %3 = select i1 %.b22, i32 28, i32 0
  %cmp = icmp slt i32 %2, %3
  br i1 %cmp, label %if.then, label %if.end61

if.then:                                          ; preds = %entry
  %all = getelementptr inbounds i8, ptr %1, i64 4
  %4 = load i8, ptr %all, align 4
  %tobool.not = icmp eq i8 %4, 0
  br i1 %tobool.not, label %if.else, label %if.then2

if.then2:                                         ; preds = %if.then
  %5 = load ptr, ptr @_ZL14fCSRecognizers, align 8
  %idxprom = sext i32 %2 to i64
  %arrayidx = getelementptr inbounds ptr, ptr %5, i64 %idxprom
  %6 = load ptr, ptr %arrayidx, align 8
  %7 = load ptr, ptr %6, align 8
  %vtable = load ptr, ptr %7, align 8
  %8 = load ptr, ptr %vtable, align 8
  %call = tail call noundef ptr %8(ptr noundef nonnull align 8 dereferenceable(8) %7)
  %9 = load ptr, ptr %context, align 8
  %10 = load i32, ptr %9, align 8
  %inc = add nsw i32 %10, 1
  store i32 %inc, ptr %9, align 8
  br label %if.end61

if.else:                                          ; preds = %if.then
  %enabledRecognizers = getelementptr inbounds i8, ptr %1, i64 8
  %11 = load ptr, ptr %enabledRecognizers, align 8
  %cmp8.not = icmp eq ptr %11, null
  br i1 %cmp8.not, label %land.rhs34, label %land.rhs

land.rhs:                                         ; preds = %if.else, %if.end
  %.b21 = phi i1 [ %.b2128, %if.end ], [ %.b22, %if.else ]
  %12 = load ptr, ptr %context, align 8
  %13 = load i32, ptr %12, align 8
  %14 = select i1 %.b21, i32 28, i32 0
  %cmp13 = icmp slt i32 %13, %14
  br i1 %cmp13, label %while.body, label %if.end61

while.body:                                       ; preds = %land.rhs
  %idxprom16 = sext i32 %13 to i64
  %arrayidx17 = getelementptr inbounds i8, ptr %11, i64 %idxprom16
  %15 = load i8, ptr %arrayidx17, align 1
  %tobool18.not = icmp eq i8 %15, 0
  br i1 %tobool18.not, label %if.end, label %if.then19

if.then19:                                        ; preds = %while.body
  %16 = load ptr, ptr @_ZL14fCSRecognizers, align 8
  %arrayidx23 = getelementptr inbounds ptr, ptr %16, i64 %idxprom16
  %17 = load ptr, ptr %arrayidx23, align 8
  %18 = load ptr, ptr %17, align 8
  %vtable25 = load ptr, ptr %18, align 8
  %19 = load ptr, ptr %vtable25, align 8
  %call27 = tail call noundef ptr %19(ptr noundef nonnull align 8 dereferenceable(8) %18)
  %.b21.pre = load i1, ptr @_ZL19fCSRecognizers_size, align 4
  %.pre = load ptr, ptr %context, align 8
  %.pre30 = load i32, ptr %.pre, align 8
  br label %if.end

if.end:                                           ; preds = %if.then19, %while.body
  %20 = phi i32 [ %.pre30, %if.then19 ], [ %13, %while.body ]
  %21 = phi ptr [ %.pre, %if.then19 ], [ %12, %while.body ]
  %.b2128 = phi i1 [ %.b21.pre, %if.then19 ], [ %.b21, %while.body ]
  %currName.1 = phi ptr [ %call27, %if.then19 ], [ null, %while.body ]
  %inc30 = add nsw i32 %20, 1
  store i32 %inc30, ptr %21, align 8
  %cmp10 = icmp eq ptr %currName.1, null
  br i1 %cmp10, label %land.rhs, label %if.end61, !llvm.loop !14

land.rhs34:                                       ; preds = %if.else, %if.end54
  %.b = phi i1 [ %.b32, %if.end54 ], [ %.b22, %if.else ]
  %22 = load ptr, ptr %context, align 8
  %23 = load i32, ptr %22, align 8
  %24 = select i1 %.b, i32 28, i32 0
  %cmp37 = icmp slt i32 %23, %24
  br i1 %cmp37, label %while.body39, label %if.end61

while.body39:                                     ; preds = %land.rhs34
  %25 = load ptr, ptr @_ZL14fCSRecognizers, align 8
  %idxprom42 = sext i32 %23 to i64
  %arrayidx43 = getelementptr inbounds ptr, ptr %25, i64 %idxprom42
  %26 = load ptr, ptr %arrayidx43, align 8
  %isDefaultEnabled = getelementptr inbounds i8, ptr %26, i64 8
  %27 = load i8, ptr %isDefaultEnabled, align 8
  %tobool44.not = icmp eq i8 %27, 0
  br i1 %tobool44.not, label %if.end54, label %if.then45

if.then45:                                        ; preds = %while.body39
  %28 = load ptr, ptr %26, align 8
  %vtable51 = load ptr, ptr %28, align 8
  %29 = load ptr, ptr %vtable51, align 8
  %call53 = tail call noundef ptr %29(ptr noundef nonnull align 8 dereferenceable(8) %28)
  %.b.pre = load i1, ptr @_ZL19fCSRecognizers_size, align 4
  %.pre34 = load ptr, ptr %context, align 8
  %.pre35 = load i32, ptr %.pre34, align 8
  br label %if.end54

if.end54:                                         ; preds = %if.then45, %while.body39
  %30 = phi i32 [ %.pre35, %if.then45 ], [ %23, %while.body39 ]
  %31 = phi ptr [ %.pre34, %if.then45 ], [ %22, %while.body39 ]
  %.b32 = phi i1 [ %.b.pre, %if.then45 ], [ %.b, %while.body39 ]
  %currName.3 = phi ptr [ %call53, %if.then45 ], [ null, %while.body39 ]
  %inc57 = add nsw i32 %30, 1
  store i32 %inc57, ptr %31, align 8
  %cmp33 = icmp eq ptr %currName.3, null
  br i1 %cmp33, label %land.rhs34, label %if.end61, !llvm.loop !15

if.end61:                                         ; preds = %land.rhs, %if.end, %land.rhs34, %if.end54, %if.then2, %entry
  %currName.4 = phi ptr [ %call, %if.then2 ], [ null, %entry ], [ %currName.3, %if.end54 ], [ null, %land.rhs34 ], [ %currName.1, %if.end ], [ null, %land.rhs ]
  %cmp62.not = icmp eq ptr %resultLength, null
  br i1 %cmp62.not, label %if.end66, label %if.then63

if.then63:                                        ; preds = %if.end61
  %cmp64 = icmp eq ptr %currName.4, null
  br i1 %cmp64, label %cond.end, label %cond.false

cond.false:                                       ; preds = %if.then63
  %call65 = tail call i64 @strlen(ptr noundef nonnull dereferenceable(1) %currName.4) #17
  %conv = trunc i64 %call65 to i32
  br label %cond.end

cond.end:                                         ; preds = %if.then63, %cond.false
  %cond = phi i32 [ %conv, %cond.false ], [ 0, %if.then63 ]
  store i32 %cond, ptr %resultLength, align 4
  br label %if.end66

if.end66:                                         ; preds = %cond.end, %if.end61
  ret ptr %currName.4
}